target datalayout = "e-m:e-p270:32:32-p271:32:32-p272:64:64-i64:64-i128:128-f80:128-n8:16:32:64-S128"
target triple = "x86_64-pc-linux-gnu"

%"class.std::_Function_base" = type { %"union.std::_Any_data", ptr }
%"union.std::_Any_data" = type { %"union.std::_Nocopy_types" }
%"union.std::_Nocopy_types" = type { { i64, i64 } }
%"class.gmx::EnergyData::Element" = type <{ %"class.gmx::ISimulatorElement", %"class.gmx::ITrajectoryWriterClient", %"class.gmx::ITrajectorySignallerClient", %"class.gmx::IEnergySignallerClient", %"class.gmx::ICheckpointHelperClient", ptr, %"class.std::__cxx11::basic_string", i8, [7 x i8], i64, i64, i64, i32, [4 x i8] }>
%"class.gmx::ISimulatorElement" = type { ptr }
%"class.gmx::ITrajectoryWriterClient" = type { ptr }
%"class.gmx::ITrajectorySignallerClient" = type { ptr }
%"class.gmx::IEnergySignallerClient" = type { ptr }
%"class.gmx::ICheckpointHelperClient" = type { ptr }
%"class.std::__cxx11::basic_string" = type { %"struct.std::__cxx11::basic_string<char>::_Alloc_hider", i64, %union.anon }
%"struct.std::__cxx11::basic_string<char>::_Alloc_hider" = type { ptr }
%union.anon = type { i64, [8 x i8] }
%struct.t_commrec = type <{ i8, [3 x i8], i32, i32, i32, i32, [4 x i8], ptr, ptr, i32, [4 x i8], ptr, i32, i32, %struct.gmx_nodecomm_t, %"class.std::unique_ptr.337", %"class.std::unique_ptr.345", ptr, ptr, i32, [4 x i8] }>
%struct.gmx_nodecomm_t = type { i8, ptr, i32, ptr }
%"class.std::unique_ptr.337" = type { %"struct.std::__uniq_ptr_data.338" }
%"struct.std::__uniq_ptr_data.338" = type { %"class.std::__uniq_ptr_impl.339" }
%"class.std::__uniq_ptr_impl.339" = type { %"class.std::tuple.340" }
%"class.std::tuple.340" = type { %"struct.std::_Tuple_impl.341" }
%"struct.std::_Tuple_impl.341" = type { %"struct.std::_Head_base.344" }
%"struct.std::_Head_base.344" = type { ptr }
%"class.std::unique_ptr.345" = type { %"struct.std::__uniq_ptr_data.346" }
%"struct.std::__uniq_ptr_data.346" = type { %"class.std::__uniq_ptr_impl.347" }
%"class.std::__uniq_ptr_impl.347" = type { %"class.std::tuple.348" }
%"class.std::tuple.348" = type { %"struct.std::_Tuple_impl.349" }
%"struct.std::_Tuple_impl.349" = type { %"struct.std::_Head_base.352" }
%"struct.std::_Head_base.352" = type { ptr }
%"class.gmx::EnergyData" = type { %"class.std::unique_ptr", %"class.std::unique_ptr.41", %class.ekinstate_t, i8, [3 x [3 x float]], [3 x [3 x float]], [3 x [3 x float]], [3 x [3 x float]], [3 x float], i64, i64, i64, i64, i8, i8, i32, ptr, ptr, %"class.std::vector.52", %"class.std::function.57", ptr, ptr, ptr, ptr, ptr, ptr, ptr, ptr, ptr, ptr, ptr, i8, ptr }
%"class.std::unique_ptr" = type { %"struct.std::__uniq_ptr_data" }
%"struct.std::__uniq_ptr_data" = type { %"class.std::__uniq_ptr_impl" }
%"class.std::__uniq_ptr_impl" = type { %"class.std::tuple" }
%"class.std::tuple" = type { %"struct.std::_Tuple_impl" }
%"struct.std::_Tuple_impl" = type { %"struct.std::_Head_base.40" }
%"struct.std::_Head_base.40" = type { ptr }
%"class.std::unique_ptr.41" = type { %"struct.std::__uniq_ptr_data.42" }
%"struct.std::__uniq_ptr_data.42" = type { %"class.std::__uniq_ptr_impl.43" }
%"class.std::__uniq_ptr_impl.43" = type { %"class.std::tuple.44" }
%"class.std::tuple.44" = type { %"struct.std::_Tuple_impl.45" }
%"struct.std::_Tuple_impl.45" = type { %"struct.std::_Head_base.48" }
%"struct.std::_Head_base.48" = type { ptr }
%class.ekinstate_t = type <{ i8, [3 x i8], i32, ptr, ptr, ptr, [3 x [3 x float]], [4 x i8], %"class.std::vector", %"class.std::vector", %"class.std::vector", float, float, i8, [7 x i8] }>
%"class.std::vector" = type { %"struct.std::_Vector_base" }
%"struct.std::_Vector_base" = type { %"struct.std::_Vector_base<double, std::allocator<double>>::_Vector_impl" }
%"struct.std::_Vector_base<double, std::allocator<double>>::_Vector_impl" = type { %"struct.std::_Vector_base<double, std::allocator<double>>::_Vector_impl_data" }
%"struct.std::_Vector_base<double, std::allocator<double>>::_Vector_impl_data" = type { ptr, ptr, ptr }
%"class.std::vector.52" = type { %"struct.std::_Vector_base.53" }
%"struct.std::_Vector_base.53" = type { %"struct.std::_Vector_base<std::function<float (long, double)>, std::allocator<std::function<float (long, double)>>>::_Vector_impl" }
%"struct.std::_Vector_base<std::function<float (long, double)>, std::allocator<std::function<float (long, double)>>>::_Vector_impl" = type { %"struct.std::_Vector_base<std::function<float (long, double)>, std::allocator<std::function<float (long, double)>>>::_Vector_impl_data" }
%"struct.std::_Vector_base<std::function<float (long, double)>, std::allocator<std::function<float (long, double)>>>::_Vector_impl_data" = type { ptr, ptr, ptr }
%"class.std::function.57" = type { %"class.std::_Function_base", ptr }
%"class.std::optional.8" = type { %"struct.std::_Optional_base.9" }
%"struct.std::_Optional_base.9" = type { %"struct.std::_Optional_payload.11" }
%"struct.std::_Optional_payload.11" = type { %"struct.std::_Optional_payload_base.base.14", [7 x i8] }
%"struct.std::_Optional_payload_base.base.14" = type <{ %"union.std::_Optional_payload_base<gmx::CheckpointData<CheckpointDataOperation::Read>>::_Storage", i8 }>
%"union.std::_Optional_payload_base<gmx::CheckpointData<CheckpointDataOperation::Read>>::_Storage" = type { %"class.gmx::CheckpointData.13" }
%"class.gmx::CheckpointData.13" = type { ptr }
%"struct.std::_Optional_payload_base.12" = type <{ %"union.std::_Optional_payload_base<gmx::CheckpointData<CheckpointDataOperation::Read>>::_Storage", i8, [7 x i8] }>

; Function Attrs: mustprogress nounwind uwtable
define linkonce_odr noundef nonnull align 8 dereferenceable(8) ptr @_ZNSt22_Optional_payload_baseIN3gmx14CheckpointDataILNS0_23CheckpointDataOperationE0EEEE6_M_getEv(ptr noundef nonnull align 8 dereferenceable(9) %0) #1 comdat align 2 {
  %2 = alloca ptr, align 8
  store ptr %0, ptr %2, align 8, !tbaa !917
  %3 = load ptr, ptr %2, align 8
  %4 = getelementptr inbounds nuw %"struct.std::_Optional_payload_base.12", ptr %3, i32 0, i32 0
  ret ptr %4
}

; Function Attrs: mustprogress nounwind uwtable
define linkonce_odr noundef nonnull align 8 dereferenceable(8) ptr @_ZNSt19_Optional_base_implIN3gmx14CheckpointDataILNS0_23CheckpointDataOperationE0EEESt14_Optional_baseIS3_Lb1ELb1EEE6_M_getEv(ptr noundef nonnull align 1 dereferenceable(1) %0) #1 comdat align 2 {
  %2 = alloca ptr, align 8
  store ptr %0, ptr %2, align 8, !tbaa !913
  %3 = load ptr, ptr %2, align 8
  br label %4

4:                                                ; preds = %1
  br label %5

5:                                                ; preds = %4
  br label %6

6:                                                ; preds = %5
  %7 = getelementptr inbounds nuw %"struct.std::_Optional_base.9", ptr %3, i32 0, i32 0
  %8 = call noundef nonnull align 8 dereferenceable(8) ptr @_ZNSt22_Optional_payload_baseIN3gmx14CheckpointDataILNS0_23CheckpointDataOperationE0EEEE6_M_getEv(ptr noundef nonnull align 8 dereferenceable(9) %7) #22
  ret ptr %8
}

; Function Attrs: mustprogress nounwind uwtable
define linkonce_odr noundef zeroext i1 @_ZNKSt19_Optional_base_implIN3gmx14CheckpointDataILNS0_23CheckpointDataOperationE0EEESt14_Optional_baseIS3_Lb1ELb1EEE13_M_is_engagedEv(ptr noundef nonnull align 1 dereferenceable(1) %0) #1 comdat align 2 {
  %2 = alloca ptr, align 8
  store ptr %0, ptr %2, align 8, !tbaa !913
  %3 = load ptr, ptr %2, align 8
  %4 = getelementptr inbounds nuw %"struct.std::_Optional_base.9", ptr %3, i32 0, i32 0
  %5 = getelementptr inbounds nuw %"struct.std::_Optional_payload_base.12", ptr %4, i32 0, i32 1
  %6 = load i8, ptr %5, align 8, !tbaa !915, !range !28, !noundef !29
  %7 = trunc i8 %6 to i1
  ret i1 %7
}

; Function Attrs: mustprogress uwtable
define linkonce_odr noundef nonnull align 8 dereferenceable(8) ptr @_ZNRSt8optionalIN3gmx14CheckpointDataILNS0_23CheckpointDataOperationE0EEEE5valueEv(ptr noundef nonnull align 8 dereferenceable(16) %0) #0 comdat align 2 {
  %2 = alloca ptr, align 8
  store ptr %0, ptr %2, align 8, !tbaa !867
  %3 = load ptr, ptr %2, align 8
  %4 = call noundef zeroext i1 @_ZNKSt19_Optional_base_implIN3gmx14CheckpointDataILNS0_23CheckpointDataOperationE0EEESt14_Optional_baseIS3_Lb1ELb1EEE13_M_is_engagedEv(ptr noundef nonnull align 1 dereferenceable(1) %3) #22
  br i1 %4, label %5, label %7

5:                                                ; preds = %1
  %6 = call noundef nonnull align 8 dereferenceable(8) ptr @_ZNSt19_Optional_base_implIN3gmx14CheckpointDataILNS0_23CheckpointDataOperationE0EEESt14_Optional_baseIS3_Lb1ELb1EEE6_M_getEv(ptr noundef nonnull align 1 dereferenceable(1) %3) #22
  ret ptr %6

7:                                                ; preds = %1
  call void @_ZSt27__throw_bad_optional_accessv() #26
  unreachable
}

; Function Attrs: mustprogress uwtable
define void @_ZN3gmx10EnergyData7Element22restoreCheckpointStateESt8optionalINS_14CheckpointDataILNS_23CheckpointDataOperationE0EEEEPK9t_commrec(ptr noundef nonnull align 8 dereferenceable(120) %0, ptr %1, i8 %2, ptr noundef %3) unnamed_addr #0 align 2 {
  %5 = alloca %"class.std::optional.8", align 8
  %6 = alloca ptr, align 8
  %7 = alloca ptr, align 8
  %8 = getelementptr inbounds nuw { ptr, i8 }, ptr %5, i32 0, i32 0
  store ptr %1, ptr %8, align 8
  %9 = getelementptr inbounds nuw { ptr, i8 }, ptr %5, i32 0, i32 1
  store i8 %2, ptr %9, align 8
  store ptr %0, ptr %6, align 8, !tbaa !4
  store ptr %3, ptr %7, align 8, !tbaa !43
  %10 = load ptr, ptr %6, align 8
  %11 = load ptr, ptr %7, align 8, !tbaa !43
  %12 = getelementptr inbounds nuw %struct.t_commrec, ptr %11, i32 0, i32 13
  %13 = load i32, ptr %12, align 4, !tbaa !45
  %14 = icmp eq i32 %13, 0
  br i1 %14, label %20, label %15

15:                                               ; preds = %4
  %16 = load ptr, ptr %7, align 8, !tbaa !43
  %17 = getelementptr inbounds nuw %struct.t_commrec, ptr %16, i32 0, i32 12
  %18 = load i32, ptr %17, align 8, !tbaa !63
  %19 = icmp sgt i32 %18, 1
  br i1 %19, label %22, label %20

20:                                               ; preds = %15, %4
  %21 = call noundef nonnull align 8 dereferenceable(8) ptr @_ZNRSt8optionalIN3gmx14CheckpointDataILNS0_23CheckpointDataOperationE0EEEE5valueEv(ptr noundef nonnull align 8 dereferenceable(16) %5)
  call void @_ZN3gmx10EnergyData7Element16doCheckpointDataILNS_23CheckpointDataOperationE0EEEvPNS_14CheckpointDataIXT_EEE(ptr noundef nonnull align 8 dereferenceable(120) %10, ptr noundef %21)
  br label %22

22:                                               ; preds = %20, %15
  %23 = load ptr, ptr %7, align 8, !tbaa !43
  %24 = getelementptr inbounds nuw %struct.t_commrec, ptr %23, i32 0, i32 13
  %25 = load i32, ptr %24, align 4, !tbaa !45
  %26 = icmp eq i32 %25, 0
  br i1 %26, label %32, label %27

27:                                               ; preds = %22
  %28 = load ptr, ptr %7, align 8, !tbaa !43
  %29 = getelementptr inbounds nuw %struct.t_commrec, ptr %28, i32 0, i32 12
  %30 = load i32, ptr %29, align 8, !tbaa !63
  %31 = icmp sgt i32 %30, 1
  br i1 %31, label %39, label %32

32:                                               ; preds = %27, %22
  %33 = getelementptr inbounds nuw %"class.gmx::EnergyData::Element", ptr %10, i32 0, i32 5
  %34 = load ptr, ptr %33, align 8, !tbaa !64
  %35 = getelementptr inbounds nuw %"class.gmx::EnergyData", ptr %34, i32 0, i32 2
  %36 = getelementptr inbounds nuw %class.ekinstate_t, ptr %35, i32 0, i32 0
  %37 = load i8, ptr %36, align 8, !tbaa !111, !range !28, !noundef !29
  %38 = trunc i8 %37 to i1
  br label %40

39:                                               ; preds = %27
  br label %40

40:                                               ; preds = %39, %32
  %41 = phi i1 [ %38, %32 ], [ false, %39 ]
  %42 = getelementptr inbounds nuw %"class.gmx::EnergyData::Element", ptr %10, i32 0, i32 5
  %43 = load ptr, ptr %42, align 8, !tbaa !64
  %44 = getelementptr inbounds nuw %"class.gmx::EnergyData", ptr %43, i32 0, i32 14
  %45 = zext i1 %41 to i8
  store i8 %45, ptr %44, align 1, !tbaa !113
  %46 = load ptr, ptr %7, align 8, !tbaa !43
  %47 = getelementptr inbounds nuw %struct.t_commrec, ptr %46, i32 0, i32 12
  %48 = load i32, ptr %47, align 8, !tbaa !63
  %49 = icmp sgt i32 %48, 1
  br i1 %49, label %50, label %57

50:                                               ; preds = %40
  %51 = getelementptr inbounds nuw %"class.gmx::EnergyData::Element", ptr %10, i32 0, i32 5
  %52 = load ptr, ptr %51, align 8, !tbaa !64
  %53 = getelementptr inbounds nuw %"class.gmx::EnergyData", ptr %52, i32 0, i32 14
  %54 = load ptr, ptr %7, align 8, !tbaa !43
  %55 = getelementptr inbounds nuw %struct.t_commrec, ptr %54, i32 0, i32 8
  %56 = load ptr, ptr %55, align 8, !tbaa !114
  call void @_Z9gmx_bcastmPvP10tmpi_comm_(i64 noundef 1, ptr noundef %53, ptr noundef %56)
  br label %57

57:                                               ; preds = %50, %40
  %58 = getelementptr inbounds nuw %"class.gmx::EnergyData::Element", ptr %10, i32 0, i32 5
  %59 = load ptr, ptr %58, align 8, !tbaa !64
  %60 = getelementptr inbounds nuw %"class.gmx::EnergyData", ptr %59, i32 0, i32 14
  %61 = load i8, ptr %60, align 1, !tbaa !113, !range !28, !noundef !29
  %62 = trunc i8 %61 to i1
  br i1 %62, label %63, label %72

63:                                               ; preds = %57
  %64 = load ptr, ptr %7, align 8, !tbaa !43
  %65 = getelementptr inbounds nuw %"class.gmx::EnergyData::Element", ptr %10, i32 0, i32 5
  %66 = load ptr, ptr %65, align 8, !tbaa !64
  %67 = getelementptr inbounds nuw %"class.gmx::EnergyData", ptr %66, i32 0, i32 24
  %68 = load ptr, ptr %67, align 8, !tbaa !65
  %69 = getelementptr inbounds nuw %"class.gmx::EnergyData::Element", ptr %10, i32 0, i32 5
  %70 = load ptr, ptr %69, align 8, !tbaa !64
  %71 = getelementptr inbounds nuw %"class.gmx::EnergyData", ptr %70, i32 0, i32 2
  call void @_Z28restore_ekinstate_from_statePK9t_commrecP14gmx_ekindata_tPK11ekinstate_t(ptr noundef %64, ptr noundef %68, ptr noundef %71)
  br label %72

72:                                               ; preds = %63, %57
  ret void
}