; Function Attrs: mustprogress uwtable
define void @_ZN3gmx10EnergyData7Element22restoreCheckpointStateESt8optionalINS_14CheckpointDataILNS_23CheckpointDataOperationE0EEEEPK9t_commrec(ptr noundef nonnull align 8 dereferenceable(120) %0, ptr %1, i8 %2, ptr noundef %3) unnamed_addr #0 align 2 {
  %5 = alloca %"class.std::optional.8", align 8
  store ptr %1, ptr %5, align 8
  %6 = getelementptr inbounds nuw i8, ptr %5, i64 8
  store i8 %2, ptr %6, align 8
  %7 = getelementptr inbounds nuw i8, ptr %3, i64 60
  %8 = load i32, ptr %7, align 4, !tbaa !43
  %9 = icmp eq i32 %8, 0
  br i1 %9, label %14, label %10

10:                                               ; preds = %4
  %11 = getelementptr inbounds nuw i8, ptr %3, i64 56
  %12 = load i32, ptr %11, align 8, !tbaa !61
  %13 = icmp sgt i32 %12, 1
  br i1 %13, label %.thread, label %14

14:                                               ; preds = %10, %4
  %15 = trunc nuw i8 %2 to i1
  br i1 %15, label %17, label %16

16:                                               ; preds = %14
  tail call void @_ZSt27__throw_bad_optional_accessv() #30
  unreachable

17:                                               ; preds = %14
  call void @_ZN3gmx10EnergyData7Element16doCheckpointDataILNS_23CheckpointDataOperationE0EEEvPNS_14CheckpointDataIXT_EEE(ptr noundef nonnull align 8 dereferenceable(120) %0, ptr noundef nonnull %5)
  %.pre = load i32, ptr %7, align 4, !tbaa !43
  %18 = icmp eq i32 %.pre, 0
  br i1 %18, label %26, label %.thread

.thread:                                          ; preds = %10, %17
  %19 = getelementptr inbounds nuw i8, ptr %3, i64 56
  %20 = load i32, ptr %19, align 8, !tbaa !61
  %21 = icmp sgt i32 %20, 1
  %.phi.trans.insert = getelementptr inbounds nuw i8, ptr %0, i64 40
  %.pre8 = load ptr, ptr %.phi.trans.insert, align 8, !tbaa !62
  br i1 %21, label %.thread16, label %.thread17

.thread17:                                        ; preds = %.thread
  %22 = getelementptr inbounds nuw i8, ptr %.pre8, i64 16
  %23 = load i8, ptr %22, align 8, !tbaa !108, !range !21, !noundef !22
  %24 = getelementptr inbounds nuw i8, ptr %.pre8, i64 369
  store i8 %23, ptr %24, align 1, !tbaa !115
  br label %38

.thread16:                                        ; preds = %.thread
  %25 = getelementptr inbounds nuw i8, ptr %.pre8, i64 369
  store i8 0, ptr %25, align 1, !tbaa !115
  br label %33

26:                                               ; preds = %17
  %.phi.trans.insert9.phi.trans.insert = getelementptr inbounds nuw i8, ptr %3, i64 56
  %.pre10.pre = load i32, ptr %.phi.trans.insert9.phi.trans.insert, align 8, !tbaa !61
  %27 = icmp sgt i32 %.pre10.pre, 1
  %28 = getelementptr inbounds nuw i8, ptr %0, i64 40
  %29 = load ptr, ptr %28, align 8, !tbaa !62
  %30 = getelementptr inbounds nuw i8, ptr %29, i64 16
  %31 = load i8, ptr %30, align 8, !tbaa !108, !range !21, !noundef !22
  %32 = getelementptr inbounds nuw i8, ptr %29, i64 369
  store i8 %31, ptr %32, align 1, !tbaa !115
  br i1 %27, label %33, label %38

33:                                               ; preds = %.thread16, %26
  %34 = phi ptr [ %25, %.thread16 ], [ %32, %26 ]
  %35 = getelementptr inbounds nuw i8, ptr %0, i64 40
  %36 = getelementptr inbounds nuw i8, ptr %3, i64 32
  %37 = load ptr, ptr %36, align 8, !tbaa !116
  call void @_Z9gmx_bcastmPvP10tmpi_comm_(i64 noundef 1, ptr noundef nonnull %34, ptr noundef %37)
  %.pre11 = load ptr, ptr %35, align 8, !tbaa !62
  %.phi.trans.insert12 = getelementptr inbounds nuw i8, ptr %.pre11, i64 369
  %.pre13 = load i8, ptr %.phi.trans.insert12, align 1, !tbaa !115, !range !21
  br label %38

38:                                               ; preds = %.thread17, %33, %26
  %39 = phi i8 [ %.pre13, %33 ], [ %31, %26 ], [ %23, %.thread17 ]
  %40 = phi ptr [ %.pre11, %33 ], [ %29, %26 ], [ %.pre8, %.thread17 ]
  %41 = trunc nuw i8 %39 to i1
  br i1 %41, label %42, label %46

42:                                               ; preds = %38
  %43 = getelementptr inbounds nuw i8, ptr %40, i64 480
  %44 = load ptr, ptr %43, align 8, !tbaa !63
  %45 = getelementptr inbounds nuw i8, ptr %40, i64 16
  call void @_Z28restore_ekinstate_from_statePK9t_commrecP14gmx_ekindata_tPK11ekinstate_t(ptr noundef nonnull %3, ptr noundef %44, ptr noundef nonnull %45)
  br label %46

46:                                               ; preds = %42, %38
  ret void
}